Certificate:
    Data:
        Version: 3 (0x2)
        Serial Number: 1 (0x1)
    Signature Algorithm: sha1WithRSAEncryption
        Issuer: CN=hackingwithpentesterlab.link
        Validity
            Not Before: Sep 12 11:51:43 2020 GMT
            Not After : Sep 12 11:51:43 2021 GMT
        Subject: O=thiyagu, CN=mitm4.pentesterlab.com
        Subject Public Key Info:
            Public Key Algorithm: rsaEncryption
                Public-Key: (2048 bit)
                Modulus:
                    00:dc:4a:a6:74:2e:25:c2:2e:54:87:7f:8b:8c:28:
                    51:39:00:db:cf:a7:99:c4:2d:f5:4e:7f:fe:d9:06:
                    3b:3b:d9:40:d0:23:3b:35:1e:41:5f:a7:e7:d4:60:
                    c1:88:41:33:90:c0:4c:97:52:d5:bf:4e:e3:da:e4:
                    ee:3a:24:40:da:06:49:da:27:b2:3f:69:e0:d6:61:
                    36:c2:95:b9:ab:f6:6f:80:23:7e:1b:3d:36:e9:d3:
                    45:5d:ef:a8:53:94:94:fa:02:87:39:c2:dc:95:d5:
                    55:5f:a1:22:6a:75:8b:35:97:00:4a:a7:d0:30:bb:
                    44:70:ca:38:2b:35:2d:da:99:71:54:b3:68:50:38:
                    f2:63:37:e3:46:53:ef:0a:55:fa:e1:74:40:ba:0c:
                    30:bd:98:bd:b5:20:61:24:24:7b:06:fb:e7:f9:51:
                    6d:b5:ca:0e:b0:84:37:7c:a6:5b:ad:62:ce:02:0e:
                    f5:ea:5e:08:1c:a6:4e:63:11:20:c6:f0:17:47:26:
                    a5:64:3c:e7:91:3f:e1:a5:27:9f:6e:6e:80:35:6d:
                    43:7e:0a:04:e2:52:e3:5e:ec:d4:74:e2:4f:64:b9:
                    71:53:1c:72:ec:b7:d4:5d:ac:81:3b:a2:32:14:65:
                    a5:ae:17:64:18:d8:85:7d:ec:38:ef:e1:72:26:09:
                    9d:47
                Exponent: 65537 (0x10001)
        X509v3 extensions:
            X509v3 Basic Constraints: 
                CA:FALSE
            Netscape Comment: 
                OpenSSL Generated Certificate
            X509v3 Subject Key Identifier: 
                03:38:47:B0:EA:9E:88:04:66:29:D3:0F:5B:6D:D3:1D:EA:C8:A1:DF
            X509v3 Authority Key Identifier: 
                keyid:5B:8A:15:66:45:F1:B4:0E:96:74:D7:66:FE:DF:38:B0:98:14:FB:04

    Signature Algorithm: sha1WithRSAEncryption
         75:c0:cf:c6:54:42:86:b8:70:a8:1f:46:19:f4:63:3d:76:9b:
         ed:05:3e:87:4f:e6:58:d0:1d:3e:b3:cc:35:d5:da:76:b3:7b:
         f2:de:cf:65:f0:b7:8b:10:95:69:f8:43:ef:55:e6:a7:07:bc:
         3e:a1:e1:98:81:74:ab:0c:5c:72:7b:13:ba:5b:8e:75:80:7e:
         58:2e:14:18:1a:a7:33:80:f7:2d:50:f4:7f:fd:13:b5:82:94:
         2c:f0:5a:42:89:4f:62:3f:32:2b:66:61:db:56:d1:1f:30:18:
         4b:87:3a:7b:e7:f4:cd:17:85:c8:6b:28:23:77:d1:dc:35:b1:
         d0:2a:13:3e:59:97:b1:3d:05:75:b3:65:f9:c2:41:71:fd:7c:
         26:c9:22:f5:c0:5a:d8:32:11:df:27:82:8b:48:73:90:d6:55:
         4d:66:12:3a:59:53:f5:6e:a5:4c:ac:c3:34:2c:54:5c:99:bf:
         9d:7f:19:db:18:39:2b:fa:57:0d:2b:11:f9:60:ba:7c:ea:28:
         e0:ad:15:0a:12:3d:86:01:3f:e1:c1:f1:0f:7a:e4:78:fb:64:
         7c:d9:e5:0d:42:8e:36:1e:3f:da:e5:aa:b6:47:46:a0:39:88:
         a1:77:75:ab:1c:b5:3c:52:17:e4:d4:f1:e7:57:46:c0:59:ee:
         7e:77:67:a5
-----BEGIN CERTIFICATE-----
MIIDUDCCAjigAwIBAgIBATANBgkqhkiG9w0BAQUFADAnMSUwIwYDVQQDExxoYWNr
aW5nd2l0aHBlbnRlc3RlcmxhYi5saW5rMB4XDTIwMDkxMjExNTE0M1oXDTIxMDkx
MjExNTE0M1owMzEQMA4GA1UECgwHdGhpeWFndTEfMB0GA1UEAwwWbWl0bTQucGVu
dGVzdGVybGFiLmNvbTCCASIwDQYJKoZIhvcNAQEBBQADggEPADCCAQoCggEBANxK
pnQuJcIuVId/i4woUTkA28+nmcQt9U5//tkGOzvZQNAjOzUeQV+n59RgwYhBM5DA
TJdS1b9O49rk7jokQNoGSdonsj9p4NZhNsKVuav2b4Ajfhs9NunTRV3vqFOUlPoC
hznC3JXVVV+hImp1izWXAEqn0DC7RHDKOCs1LdqZcVSzaFA48mM340ZT7wpV+uF0
QLoMML2YvbUgYSQkewb75/lRbbXKDrCEN3ymW61izgIO9epeCBymTmMRIMbwF0cm
pWQ855E/4aUnn25ugDVtQ34KBOJS417s1HTiT2S5cVMccuy31F2sgTuiMhRlpa4X
ZBjYhX3sOO/hciYJnUcCAwEAAaN7MHkwCQYDVR0TBAIwADAsBglghkgBhvhCAQ0E
HxYdT3BlblNTTCBHZW5lcmF0ZWQgQ2VydGlmaWNhdGUwHQYDVR0OBBYEFAM4R7Dq
nogEZinTD1tt0x3qyKHfMB8GA1UdIwQYMBaAFFuKFWZF8bQOlnTXZv7fOLCYFPsE
MA0GCSqGSIb3DQEBBQUAA4IBAQB1wM/GVEKGuHCoH0YZ9GM9dpvtBT6HT+ZY0B0+
s8w11dp2s3vy3s9l8LeLEJVp+EPvVeanB7w+oeGYgXSrDFxyexO6W451gH5YLhQY
GqczgPctUPR//RO1gpQs8FpCiU9iPzIrZmHbVtEfMBhLhzp75/TNF4XIaygjd9Hc
NbHQKhM+WZexPQV1s2X5wkFx/XwmySL1wFrYMhHfJ4KLSHOQ1lVNZhI6WVP1bqVM
rMM0LFRcmb+dfxnbGDkr+lcNKxH5YLp86ijgrRUKEj2GAT/hwfEPeuR4+2R82eUN
Qo42Hj/a5aq2R0agOYihd3WrHLU8Uhfk1PHnV0bAWe5+d2el
-----END CERTIFICATE-----
